target datalayout = "e-m:e-p270:32:32-p271:32:32-p272:64:64-i64:64-i128:128-f80:128-n8:16:32:64-S128"
target triple = "x86_64-pc-linux-gnu"

%struct.MultiXactMember = type { i32, i32 }

; Function Attrs: nounwind uwtable
define dso_local i32 @MultiXactIdExpand(i32 noundef %0, i32 noundef %1, i32 noundef %2) #0 {
  %4 = alloca i32, align 4
  %5 = alloca i32, align 4
  %6 = alloca i32, align 4
  %7 = alloca i32, align 4
  %8 = alloca i32, align 4
  %9 = alloca ptr, align 8
  %10 = alloca ptr, align 8
  %11 = alloca i32, align 4
  %12 = alloca i32, align 4
  %13 = alloca i32, align 4
  %14 = alloca %struct.MultiXactMember, align 4
  %15 = alloca i32, align 4
  store i32 %0, ptr %5, align 4
  store i32 %1, ptr %6, align 4
  store i32 %2, ptr %7, align 4
  call void @llvm.lifetime.start.p0(i64 4, ptr %8) #9
  call void @llvm.lifetime.start.p0(i64 8, ptr %9) #9
  call void @llvm.lifetime.start.p0(i64 8, ptr %10) #9
  call void @llvm.lifetime.start.p0(i64 4, ptr %11) #9
  call void @llvm.lifetime.start.p0(i64 4, ptr %12) #9
  call void @llvm.lifetime.start.p0(i64 4, ptr %13) #9
  %16 = load i32, ptr %5, align 4
  %17 = call i32 @GetMultiXactIdMembers(i32 noundef %16, ptr noundef %9, i1 noundef zeroext false, i1 noundef zeroext false)
  store i32 %17, ptr %11, align 4
  %18 = load i32, ptr %11, align 4
  %19 = icmp slt i32 %18, 0
  br i1 %19, label %20, label %27

20:                                               ; preds = %3
  call void @llvm.lifetime.start.p0(i64 8, ptr %14) #9
  %21 = load i32, ptr %6, align 4
  %22 = getelementptr inbounds nuw %struct.MultiXactMember, ptr %14, i32 0, i32 0
  store i32 %21, ptr %22, align 4
  %23 = load i32, ptr %7, align 4
  %24 = getelementptr inbounds nuw %struct.MultiXactMember, ptr %14, i32 0, i32 1
  store i32 %23, ptr %24, align 4
  %25 = call i32 @MultiXactIdCreateFromMembers(i32 noundef 1, ptr noundef %14)
  store i32 %25, ptr %8, align 4
  %26 = load i32, ptr %8, align 4
  store i32 %26, ptr %4, align 4
  store i32 1, ptr %15, align 4
  call void @llvm.lifetime.end.p0(i64 8, ptr %14) #9
  br label %139

27:                                               ; preds = %3
  store i32 0, ptr %12, align 4
  br label %28

28:                                               ; preds = %54, %27
  %29 = load i32, ptr %12, align 4
  %30 = load i32, ptr %11, align 4
  %31 = icmp slt i32 %29, %30
  br i1 %31, label %32, label %57

32:                                               ; preds = %28
  %33 = load ptr, ptr %9, align 8
  %34 = load i32, ptr %12, align 4
  %35 = sext i32 %34 to i64
  %36 = getelementptr inbounds %struct.MultiXactMember, ptr %33, i64 %35
  %37 = getelementptr inbounds nuw %struct.MultiXactMember, ptr %36, i32 0, i32 0
  %38 = load i32, ptr %37, align 4
  %39 = load i32, ptr %6, align 4
  %40 = icmp eq i32 %38, %39
  br i1 %40, label %41, label %53

41:                                               ; preds = %32
  %42 = load ptr, ptr %9, align 8
  %43 = load i32, ptr %12, align 4
  %44 = sext i32 %43 to i64
  %45 = getelementptr inbounds %struct.MultiXactMember, ptr %42, i64 %44
  %46 = getelementptr inbounds nuw %struct.MultiXactMember, ptr %45, i32 0, i32 1
  %47 = load i32, ptr %46, align 4
  %48 = load i32, ptr %7, align 4
  %49 = icmp eq i32 %47, %48
  br i1 %49, label %50, label %53

50:                                               ; preds = %41
  %51 = load ptr, ptr %9, align 8
  call void @pfree(ptr noundef %51)
  %52 = load i32, ptr %5, align 4
  store i32 %52, ptr %4, align 4
  store i32 1, ptr %15, align 4
  br label %139

53:                                               ; preds = %41, %32
  br label %54

54:                                               ; preds = %53
  %55 = load i32, ptr %12, align 4
  %56 = add i32 %55, 1
  store i32 %56, ptr %12, align 4
  br label %28, !llvm.loop !8

57:                                               ; preds = %28
  %58 = load i32, ptr %11, align 4
  %59 = add i32 %58, 1
  %60 = sext i32 %59 to i64
  %61 = mul i64 8, %60
  %62 = call ptr @palloc(i64 noundef %61)
  store ptr %62, ptr %10, align 8
  store i32 0, ptr %12, align 4
  store i32 0, ptr %13, align 4
  br label %63

63:                                               ; preds = %116, %57
  %64 = load i32, ptr %12, align 4
  %65 = load i32, ptr %11, align 4
  %66 = icmp slt i32 %64, %65
  br i1 %66, label %67, label %119

67:                                               ; preds = %63
  %68 = load ptr, ptr %9, align 8
  %69 = load i32, ptr %12, align 4
  %70 = sext i32 %69 to i64
  %71 = getelementptr inbounds %struct.MultiXactMember, ptr %68, i64 %70
  %72 = getelementptr inbounds nuw %struct.MultiXactMember, ptr %71, i32 0, i32 0
  %73 = load i32, ptr %72, align 4
  %74 = call zeroext i1 @TransactionIdIsInProgress(i32 noundef %73)
  br i1 %74, label %91, label %75

75:                                               ; preds = %67
  %76 = load ptr, ptr %9, align 8
  %77 = load i32, ptr %12, align 4
  %78 = sext i32 %77 to i64
  %79 = getelementptr inbounds %struct.MultiXactMember, ptr %76, i64 %78
  %80 = getelementptr inbounds nuw %struct.MultiXactMember, ptr %79, i32 0, i32 1
  %81 = load i32, ptr %80, align 4
  %82 = icmp ugt i32 %81, 3
  br i1 %82, label %83, label %115

83:                                               ; preds = %75
  %84 = load ptr, ptr %9, align 8
  %85 = load i32, ptr %12, align 4
  %86 = sext i32 %85 to i64
  %87 = getelementptr inbounds %struct.MultiXactMember, ptr %84, i64 %86
  %88 = getelementptr inbounds nuw %struct.MultiXactMember, ptr %87, i32 0, i32 0
  %89 = load i32, ptr %88, align 4
  %90 = call zeroext i1 @TransactionIdDidCommit(i32 noundef %89)
  br i1 %90, label %91, label %115

91:                                               ; preds = %83, %67
  %92 = load ptr, ptr %9, align 8
  %93 = load i32, ptr %12, align 4
  %94 = sext i32 %93 to i64
  %95 = getelementptr inbounds %struct.MultiXactMember, ptr %92, i64 %94
  %96 = getelementptr inbounds nuw %struct.MultiXactMember, ptr %95, i32 0, i32 0
  %97 = load i32, ptr %96, align 4
  %98 = load ptr, ptr %10, align 8
  %99 = load i32, ptr %13, align 4
  %100 = sext i32 %99 to i64
  %101 = getelementptr inbounds %struct.MultiXactMember, ptr %98, i64 %100
  %102 = getelementptr inbounds nuw %struct.MultiXactMember, ptr %101, i32 0, i32 0
  store i32 %97, ptr %102, align 4
  %103 = load ptr, ptr %9, align 8
  %104 = load i32, ptr %12, align 4
  %105 = sext i32 %104 to i64
  %106 = getelementptr inbounds %struct.MultiXactMember, ptr %103, i64 %105
  %107 = getelementptr inbounds nuw %struct.MultiXactMember, ptr %106, i32 0, i32 1
  %108 = load i32, ptr %107, align 4
  %109 = load ptr, ptr %10, align 8
  %110 = load i32, ptr %13, align 4
  %111 = add i32 %110, 1
  store i32 %111, ptr %13, align 4
  %112 = sext i32 %110 to i64
  %113 = getelementptr inbounds %struct.MultiXactMember, ptr %109, i64 %112
  %114 = getelementptr inbounds nuw %struct.MultiXactMember, ptr %113, i32 0, i32 1
  store i32 %108, ptr %114, align 4
  br label %115

115:                                              ; preds = %91, %83, %75
  br label %116

116:                                              ; preds = %115
  %117 = load i32, ptr %12, align 4
  %118 = add i32 %117, 1
  store i32 %118, ptr %12, align 4
  br label %63, !llvm.loop !9

119:                                              ; preds = %63
  %120 = load i32, ptr %6, align 4
  %121 = load ptr, ptr %10, align 8
  %122 = load i32, ptr %13, align 4
  %123 = sext i32 %122 to i64
  %124 = getelementptr inbounds %struct.MultiXactMember, ptr %121, i64 %123
  %125 = getelementptr inbounds nuw %struct.MultiXactMember, ptr %124, i32 0, i32 0
  store i32 %120, ptr %125, align 4
  %126 = load i32, ptr %7, align 4
  %127 = load ptr, ptr %10, align 8
  %128 = load i32, ptr %13, align 4
  %129 = add i32 %128, 1
  store i32 %129, ptr %13, align 4
  %130 = sext i32 %128 to i64
  %131 = getelementptr inbounds %struct.MultiXactMember, ptr %127, i64 %130
  %132 = getelementptr inbounds nuw %struct.MultiXactMember, ptr %131, i32 0, i32 1
  store i32 %126, ptr %132, align 4
  %133 = load i32, ptr %13, align 4
  %134 = load ptr, ptr %10, align 8
  %135 = call i32 @MultiXactIdCreateFromMembers(i32 noundef %133, ptr noundef %134)
  store i32 %135, ptr %8, align 4
  %136 = load ptr, ptr %9, align 8
  call void @pfree(ptr noundef %136)
  %137 = load ptr, ptr %10, align 8
  call void @pfree(ptr noundef %137)
  %138 = load i32, ptr %8, align 4
  store i32 %138, ptr %4, align 4
  store i32 1, ptr %15, align 4
  br label %139

139:                                              ; preds = %119, %50, %20
  call void @llvm.lifetime.end.p0(i64 4, ptr %13) #9
  call void @llvm.lifetime.end.p0(i64 4, ptr %12) #9
  call void @llvm.lifetime.end.p0(i64 4, ptr %11) #9
  call void @llvm.lifetime.end.p0(i64 8, ptr %10) #9
  call void @llvm.lifetime.end.p0(i64 8, ptr %9) #9
  call void @llvm.lifetime.end.p0(i64 4, ptr %8) #9
  %140 = load i32, ptr %4, align 4
  ret i32 %140
}