; Function Attrs: nounwind uwtable
define dso_local i32 @MultiXactIdExpand(i32 noundef %0, i32 noundef %1, i32 noundef %2) local_unnamed_addr #0 {
  %4 = alloca ptr, align 8
  %5 = alloca %struct.MultiXactMember, align 4
  call void @llvm.lifetime.start.p0(i64 8, ptr nonnull %4) #13
  %6 = call i32 @GetMultiXactIdMembers(i32 noundef %0, ptr noundef nonnull %4, i1 noundef zeroext false, i1 noundef zeroext false)
  %7 = icmp slt i32 %6, 0
  br i1 %7, label %8, label %.preheader

.preheader:                                       ; preds = %3
  %.not = icmp eq i32 %6, 0
  %.pre.pre = load ptr, ptr %4, align 8
  br i1 %.not, label %._crit_edge, label %.lr.ph

.lr.ph:                                           ; preds = %.preheader
  %wide.trip.count = zext nneg i32 %6 to i64
  br label %11

8:                                                ; preds = %3
  call void @llvm.lifetime.start.p0(i64 8, ptr nonnull %5) #13
  store i32 %1, ptr %5, align 4
  %9 = getelementptr inbounds nuw i8, ptr %5, i64 4
  store i32 %2, ptr %9, align 4
  %10 = call i32 @MultiXactIdCreateFromMembers(i32 noundef 1, ptr noundef nonnull %5)
  call void @llvm.lifetime.end.p0(i64 8, ptr nonnull %5) #13
  br label %50

11:                                               ; preds = %.lr.ph, %20
  %indvars.iv = phi i64 [ 0, %.lr.ph ], [ %indvars.iv.next, %20 ]
  %12 = getelementptr inbounds nuw %struct.MultiXactMember, ptr %.pre.pre, i64 %indvars.iv
  %13 = load i32, ptr %12, align 4
  %14 = icmp eq i32 %13, %1
  br i1 %14, label %15, label %20

15:                                               ; preds = %11
  %16 = getelementptr inbounds nuw i8, ptr %12, i64 4
  %17 = load i32, ptr %16, align 4
  %18 = icmp eq i32 %17, %2
  br i1 %18, label %19, label %20

19:                                               ; preds = %15
  tail call void @pfree(ptr noundef nonnull %.pre.pre) #13
  br label %50

20:                                               ; preds = %11, %15
  %indvars.iv.next = add nuw nsw i64 %indvars.iv, 1
  %exitcond.not = icmp eq i64 %indvars.iv.next, %wide.trip.count
  br i1 %exitcond.not, label %._crit_edge, label %11, !llvm.loop !10

._crit_edge:                                      ; preds = %20, %.preheader
  %21 = add nuw i32 %6, 1
  %22 = sext i32 %21 to i64
  %23 = shl nsw i64 %22, 3
  %24 = tail call ptr @palloc(i64 noundef %23) #13
  br i1 %.not, label %._crit_edge45, label %.lr.ph44

.lr.ph44:                                         ; preds = %._crit_edge
  %smax = tail call i32 @llvm.smax.i32(i32 %6, i32 1)
  %wide.trip.count51 = zext nneg i32 %smax to i64
  br label %25

25:                                               ; preds = %.lr.ph44, %44
  %indvars.iv48 = phi i64 [ 0, %.lr.ph44 ], [ %indvars.iv.next49, %44 ]
  %.042 = phi i32 [ 0, %.lr.ph44 ], [ %.1, %44 ]
  %26 = getelementptr inbounds nuw %struct.MultiXactMember, ptr %.pre.pre, i64 %indvars.iv48
  %27 = load i32, ptr %26, align 4
  %28 = tail call zeroext i1 @TransactionIdIsInProgress(i32 noundef %27) #13
  br i1 %28, label %36, label %29

29:                                               ; preds = %25
  %30 = getelementptr inbounds nuw i8, ptr %26, i64 4
  %31 = load i32, ptr %30, align 4
  %32 = icmp ugt i32 %31, 3
  br i1 %32, label %33, label %44

33:                                               ; preds = %29
  %34 = load i32, ptr %26, align 4
  %35 = tail call zeroext i1 @TransactionIdDidCommit(i32 noundef %34) #13
  br i1 %35, label %36, label %44

36:                                               ; preds = %33, %25
  %37 = load i32, ptr %26, align 4
  %38 = sext i32 %.042 to i64
  %39 = getelementptr inbounds %struct.MultiXactMember, ptr %24, i64 %38
  store i32 %37, ptr %39, align 4
  %40 = getelementptr inbounds nuw %struct.MultiXactMember, ptr %.pre.pre, i64 %indvars.iv48, i32 1
  %41 = load i32, ptr %40, align 4
  %42 = add i32 %.042, 1
  %43 = getelementptr inbounds nuw i8, ptr %39, i64 4
  store i32 %41, ptr %43, align 4
  br label %44

44:                                               ; preds = %29, %33, %36
  %.1 = phi i32 [ %42, %36 ], [ %.042, %33 ], [ %.042, %29 ]
  %indvars.iv.next49 = add nuw nsw i64 %indvars.iv48, 1
  %exitcond52.not = icmp eq i64 %indvars.iv.next49, %wide.trip.count51
  br i1 %exitcond52.not, label %._crit_edge45, label %25, !llvm.loop !11

._crit_edge45:                                    ; preds = %44, %._crit_edge
  %.0.lcssa = phi i32 [ 0, %._crit_edge ], [ %.1, %44 ]
  %45 = sext i32 %.0.lcssa to i64
  %46 = getelementptr inbounds %struct.MultiXactMember, ptr %24, i64 %45
  store i32 %1, ptr %46, align 4
  %47 = add i32 %.0.lcssa, 1
  %48 = getelementptr inbounds nuw i8, ptr %46, i64 4
  store i32 %2, ptr %48, align 4
  %49 = tail call i32 @MultiXactIdCreateFromMembers(i32 noundef %47, ptr noundef %24)
  tail call void @pfree(ptr noundef %.pre.pre) #13
  tail call void @pfree(ptr noundef %24) #13
  br label %50

50:                                               ; preds = %._crit_edge45, %19, %8
  %.038 = phi i32 [ %10, %8 ], [ %0, %19 ], [ %49, %._crit_edge45 ]
  call void @llvm.lifetime.end.p0(i64 8, ptr nonnull %4) #13
  ret i32 %.038
}